ccollections
defaultdict
p0
(c__builtin__
list
p1
tp2
Rp3
S'this'
p4
(lp5
(S'test_data.txt'
p6
F0.16666666666666666
tp7
asS'test'
p8
(lp9
(S'test_data.txt'
p10
F0.5
tp11
asS'is'
p12
(lp13
(S'test_data.txt'
p14
F0.16666666666666666
tp15
asS'data'
p16
(lp17
(S'test_data.txt'
p18
F0.16666666666666666
tp19
as.